; Function Attrs: mustprogress uwtable
define hidden noundef zeroext i1 @_Z11uses_theoryP4expri(ptr noundef %0, i32 noundef %1) local_unnamed_addr #3 personality ptr @__gxx_personality_v0 {
  %3 = alloca %class.obj_mark, align 8
  call void @llvm.lifetime.start.p0(i64 24, ptr nonnull %3) #15
  %4 = getelementptr inbounds nuw i8, ptr %3, i64 8
  call void @llvm.memset.p0.i64(ptr noundef nonnull align 8 dereferenceable(16) %4, i8 0, i64 16, i1 false)
  %5 = invoke noundef zeroext i1 @_Z11uses_theoryP4expriR8obj_markIS_10bit_vector14default_t2uintIS_EE(ptr noundef %0, i32 noundef %1, ptr noundef nonnull align 8 dereferenceable(24) %3)
          to label %6 unwind label %14

6:                                                ; preds = %2
  %7 = getelementptr inbounds nuw i8, ptr %3, i64 16
  %8 = load ptr, ptr %7, align 8, !tbaa !3
  %9 = icmp eq ptr %8, null
  br i1 %9, label %_ZN8obj_markI4expr10bit_vector14default_t2uintIS0_EED2Ev.exit, label %10

10:                                               ; preds = %6
  invoke void @_ZN6memory10deallocateEPv(ptr noundef nonnull %8)
          to label %_ZN8obj_markI4expr10bit_vector14default_t2uintIS0_EED2Ev.exit unwind label %11

11:                                               ; preds = %10
  %12 = landingpad { ptr, i32 }
          catch ptr null
  %13 = extractvalue { ptr, i32 } %12, 0
  call void @__clang_call_terminate(ptr %13) #16
  unreachable

_ZN8obj_markI4expr10bit_vector14default_t2uintIS0_EED2Ev.exit: ; preds = %6, %10
  call void @llvm.lifetime.end.p0(i64 24, ptr nonnull %3) #15
  ret i1 %5

14:                                               ; preds = %2
  %15 = landingpad { ptr, i32 }
          cleanup
  call void @_ZN8obj_markI4expr10bit_vector14default_t2uintIS0_EED2Ev(ptr noundef nonnull align 8 dereferenceable(24) %3) #15
  call void @llvm.lifetime.end.p0(i64 24, ptr nonnull %3) #15
  resume { ptr, i32 } %15
}